; Function Attrs: nounwind uwtable
define ptr @l_Lean_Json_getObjValAs_x3f___at_Lean_Lsp_instFromJsonInitializeParams___spec__5(ptr noundef %0, ptr noundef %1) local_unnamed_addr #0 {
  %3 = tail call ptr @l_Lean_Json_getObjValD(ptr noundef %0, ptr noundef %1) #6
  %4 = tail call ptr @l_Lean_Json_getStr_x3f(ptr noundef %3) #6
  %5 = ptrtoint ptr %4 to i64
  %6 = and i64 %5, 1
  %.not.i37 = icmp eq i64 %6, 0
  br i1 %.not.i37, label %lean_obj_tag.exit.thread, label %lean_obj_tag.exit

lean_obj_tag.exit:                                ; preds = %2
  %7 = and i64 %5, 8589934590
  %8 = icmp eq i64 %7, 0
  br i1 %8, label %lean_dec.exit28, label %17

lean_obj_tag.exit.thread:                         ; preds = %2
  %9 = getelementptr i8, ptr %4, i64 4
  %.val.i = load i32, ptr %9, align 4
  %10 = icmp ult i32 %.val.i, 16777216
  br i1 %10, label %.thread, label %17

.thread:                                          ; preds = %lean_obj_tag.exit.thread
  %11 = load i32, ptr %4, align 4, !tbaa !4
  %12 = icmp sgt i32 %11, 1
  br i1 %12, label %13, label %15, !prof !11

13:                                               ; preds = %.thread
  %14 = add nsw i32 %11, -1
  store i32 %14, ptr %4, align 4, !tbaa !4
  br label %lean_dec.exit28

15:                                               ; preds = %.thread
  %.not.i = icmp eq i32 %11, 0
  br i1 %.not.i, label %lean_dec.exit28, label %16

16:                                               ; preds = %15
  tail call void @lean_dec_ref_cold(ptr noundef nonnull %4) #6
  br label %lean_dec.exit28

17:                                               ; preds = %lean_obj_tag.exit.thread, %lean_obj_tag.exit
  %18 = getelementptr inbounds nuw i8, ptr %4, i64 8
  %19 = load ptr, ptr %18, align 8, !tbaa !9
  %20 = ptrtoint ptr %19 to i64
  %21 = and i64 %20, 1
  %.not = icmp eq i64 %21, 0
  br i1 %.not, label %22, label %lean_inc.exit

22:                                               ; preds = %17
  %.val.i38 = load i32, ptr %19, align 4, !tbaa !4
  %23 = icmp sgt i32 %.val.i38, 0
  br i1 %23, label %24, label %26, !prof !11

24:                                               ; preds = %22
  %25 = add nuw i32 %.val.i38, 1
  store i32 %25, ptr %19, align 4, !tbaa !4
  br label %lean_inc.exit

26:                                               ; preds = %22
  %.not.i39 = icmp eq i32 %.val.i38, 0
  br i1 %.not.i39, label %lean_inc.exit, label %27

27:                                               ; preds = %26
  tail call void @lean_inc_ref_cold(ptr noundef nonnull %19) #6
  br label %lean_inc.exit

lean_inc.exit:                                    ; preds = %27, %26, %24, %17
  br i1 %.not.i37, label %28, label %lean_dec.exit27

28:                                               ; preds = %lean_inc.exit
  %29 = load i32, ptr %4, align 4, !tbaa !4
  %30 = icmp sgt i32 %29, 1
  br i1 %30, label %31, label %33, !prof !11

31:                                               ; preds = %28
  %32 = add nsw i32 %29, -1
  store i32 %32, ptr %4, align 4, !tbaa !4
  br label %lean_dec.exit27

33:                                               ; preds = %28
  %.not.i29 = icmp eq i32 %29, 0
  br i1 %.not.i29, label %lean_dec.exit27, label %34

34:                                               ; preds = %33
  tail call void @lean_dec_ref_cold(ptr noundef nonnull %4) #6
  br label %lean_dec.exit27

lean_dec.exit27:                                  ; preds = %34, %33, %31, %lean_inc.exit
  %35 = load ptr, ptr @l_Lean_Lsp_instFromJsonTrace___closed__3, align 8, !tbaa !9
  %36 = icmp eq ptr %19, %35
  br i1 %36, label %lean_string_dec_eq.exit.thread47, label %37

37:                                               ; preds = %lean_dec.exit27
  %38 = getelementptr i8, ptr %19, i64 8
  %.val.i.i = load i64, ptr %38, align 8, !tbaa !12
  %39 = getelementptr i8, ptr %35, i64 8
  %.val7.i.i = load i64, ptr %39, align 8, !tbaa !12
  %40 = icmp eq i64 %.val.i.i, %.val7.i.i
  br i1 %40, label %lean_string_dec_eq.exit, label %lean_string_dec_eq.exit.thread

lean_string_dec_eq.exit:                          ; preds = %37
  %41 = tail call zeroext i1 @lean_string_eq_cold(ptr noundef nonnull %19, ptr noundef nonnull %35) #6
  br i1 %41, label %lean_string_dec_eq.exit.thread47, label %lean_string_dec_eq.exit.thread

lean_string_dec_eq.exit.thread:                   ; preds = %37, %lean_string_dec_eq.exit
  %42 = load ptr, ptr @l_Lean_Lsp_instFromJsonTrace___closed__4, align 8, !tbaa !9
  %43 = icmp eq ptr %19, %42
  br i1 %43, label %lean_string_dec_eq.exit42.thread48, label %44

44:                                               ; preds = %lean_string_dec_eq.exit.thread
  %.val.i.i40 = load i64, ptr %38, align 8, !tbaa !12
  %45 = getelementptr i8, ptr %42, i64 8
  %.val7.i.i41 = load i64, ptr %45, align 8, !tbaa !12
  %46 = icmp eq i64 %.val.i.i40, %.val7.i.i41
  br i1 %46, label %lean_string_dec_eq.exit42, label %lean_string_dec_eq.exit42.thread

lean_string_dec_eq.exit42:                        ; preds = %44
  %47 = tail call zeroext i1 @lean_string_eq_cold(ptr noundef nonnull %19, ptr noundef nonnull %42) #6
  br i1 %47, label %lean_string_dec_eq.exit42.thread48, label %lean_string_dec_eq.exit42.thread

lean_string_dec_eq.exit42.thread:                 ; preds = %44, %lean_string_dec_eq.exit42
  %48 = load ptr, ptr @l_Lean_Lsp_instFromJsonTrace___closed__5, align 8, !tbaa !9
  %49 = icmp eq ptr %19, %48
  br i1 %49, label %lean_string_dec_eq.exit45, label %50

50:                                               ; preds = %lean_string_dec_eq.exit42.thread
  %.val.i.i43 = load i64, ptr %38, align 8, !tbaa !12
  %51 = getelementptr i8, ptr %48, i64 8
  %.val7.i.i44 = load i64, ptr %51, align 8, !tbaa !12
  %52 = icmp eq i64 %.val.i.i43, %.val7.i.i44
  br i1 %52, label %53, label %lean_string_dec_eq.exit45

53:                                               ; preds = %50
  %54 = tail call zeroext i1 @lean_string_eq_cold(ptr noundef nonnull %19, ptr noundef nonnull %48) #6
  %55 = select i1 %54, ptr @l_Lean_Lsp_instFromJsonTrace___closed__6, ptr @l_Lean_Lsp_instFromJsonTrace___closed__2
  br label %lean_string_dec_eq.exit45

lean_string_dec_eq.exit45:                        ; preds = %lean_string_dec_eq.exit42.thread, %50, %53
  %l_Lean_Lsp_instFromJsonTrace___closed__2.l_Lean_Lsp_instFromJsonTrace___closed__6 = phi ptr [ @l_Lean_Lsp_instFromJsonTrace___closed__6, %lean_string_dec_eq.exit42.thread ], [ @l_Lean_Lsp_instFromJsonTrace___closed__2, %50 ], [ %55, %53 ]
  br i1 %.not, label %56, label %lean_dec.exit28

56:                                               ; preds = %lean_string_dec_eq.exit45
  %57 = load i32, ptr %19, align 4, !tbaa !4
  %58 = icmp sgt i32 %57, 1
  br i1 %58, label %59, label %61, !prof !11

59:                                               ; preds = %56
  %60 = add nsw i32 %57, -1
  store i32 %60, ptr %19, align 4, !tbaa !4
  br label %lean_dec.exit28

61:                                               ; preds = %56
  %.not.i31 = icmp eq i32 %57, 0
  br i1 %.not.i31, label %lean_dec.exit28, label %62

62:                                               ; preds = %61
  tail call void @lean_dec_ref_cold(ptr noundef nonnull %19) #6
  br label %lean_dec.exit28

lean_string_dec_eq.exit42.thread48:               ; preds = %lean_string_dec_eq.exit.thread, %lean_string_dec_eq.exit42
  br i1 %.not, label %63, label %lean_dec.exit28

63:                                               ; preds = %lean_string_dec_eq.exit42.thread48
  %64 = load i32, ptr %19, align 4, !tbaa !4
  %65 = icmp sgt i32 %64, 1
  br i1 %65, label %66, label %68, !prof !11

66:                                               ; preds = %63
  %67 = add nsw i32 %64, -1
  store i32 %67, ptr %19, align 4, !tbaa !4
  br label %lean_dec.exit28

68:                                               ; preds = %63
  %.not.i33 = icmp eq i32 %64, 0
  br i1 %.not.i33, label %lean_dec.exit28, label %69

69:                                               ; preds = %68
  tail call void @lean_dec_ref_cold(ptr noundef nonnull %19) #6
  br label %lean_dec.exit28

lean_string_dec_eq.exit.thread47:                 ; preds = %lean_dec.exit27, %lean_string_dec_eq.exit
  br i1 %.not, label %70, label %lean_dec.exit28

70:                                               ; preds = %lean_string_dec_eq.exit.thread47
  %71 = load i32, ptr %19, align 4, !tbaa !4
  %72 = icmp sgt i32 %71, 1
  br i1 %72, label %73, label %75, !prof !11

73:                                               ; preds = %70
  %74 = add nsw i32 %71, -1
  store i32 %74, ptr %19, align 4, !tbaa !4
  br label %lean_dec.exit28

75:                                               ; preds = %70
  %.not.i35 = icmp eq i32 %71, 0
  br i1 %.not.i35, label %lean_dec.exit28, label %76

76:                                               ; preds = %75
  tail call void @lean_dec_ref_cold(ptr noundef nonnull %19) #6
  br label %lean_dec.exit28

lean_dec.exit28:                                  ; preds = %lean_string_dec_eq.exit45, %59, %61, %62, %lean_obj_tag.exit, %lean_string_dec_eq.exit.thread47, %73, %75, %76, %lean_string_dec_eq.exit42.thread48, %66, %68, %69, %13, %15, %16
  %.0.in = phi ptr [ @l_Lean_Lsp_instFromJsonTrace___closed__2, %16 ], [ @l_Lean_Lsp_instFromJsonTrace___closed__2, %15 ], [ @l_Lean_Lsp_instFromJsonTrace___closed__2, %13 ], [ @l_Lean_Lsp_instFromJsonTrace___closed__7, %69 ], [ @l_Lean_Lsp_instFromJsonTrace___closed__7, %68 ], [ @l_Lean_Lsp_instFromJsonTrace___closed__7, %66 ], [ @l_Lean_Lsp_instFromJsonTrace___closed__7, %lean_string_dec_eq.exit42.thread48 ], [ @l_Lean_Lsp_instFromJsonTrace___closed__8, %76 ], [ @l_Lean_Lsp_instFromJsonTrace___closed__8, %75 ], [ @l_Lean_Lsp_instFromJsonTrace___closed__8, %73 ], [ @l_Lean_Lsp_instFromJsonTrace___closed__8, %lean_string_dec_eq.exit.thread47 ], [ @l_Lean_Lsp_instFromJsonTrace___closed__2, %lean_obj_tag.exit ], [ %l_Lean_Lsp_instFromJsonTrace___closed__2.l_Lean_Lsp_instFromJsonTrace___closed__6, %62 ], [ %l_Lean_Lsp_instFromJsonTrace___closed__2.l_Lean_Lsp_instFromJsonTrace___closed__6, %61 ], [ %l_Lean_Lsp_instFromJsonTrace___closed__2.l_Lean_Lsp_instFromJsonTrace___closed__6, %59 ], [ %l_Lean_Lsp_instFromJsonTrace___closed__2.l_Lean_Lsp_instFromJsonTrace___closed__6, %lean_string_dec_eq.exit45 ]
  %.0 = load ptr, ptr %.0.in, align 8, !tbaa !9
  ret ptr %.0
}